target datalayout = "e-m:e-p270:32:32-p271:32:32-p272:64:64-i64:64-i128:128-f80:128-n8:16:32:64-S128"
target triple = "x86_64-pc-linux-gnu"

%struct.jpeg_compress_struct = type { ptr, ptr, ptr, ptr, i32, i32, ptr, i32, i32, i32, i32, double, i32, i32, i32, ptr, [4 x ptr], [4 x ptr], [4 x ptr], [16 x i8], [16 x i8], [16 x i8], i32, ptr, i32, i32, i32, i32, i32, i32, i32, i32, i32, i8, i8, i8, i16, i16, i32, i32, i32, i32, i32, i32, i32, [4 x ptr], i32, i32, i32, [10 x i32], i32, i32, i32, i32, ptr, ptr, ptr, ptr, ptr, ptr, ptr, ptr, ptr, ptr, i32 }
%struct.jpeg_error_mgr = type { ptr, ptr, ptr, ptr, ptr, i32, %union.anon, i32, i64, ptr, i32, ptr, i32, i32 }
%union.anon = type { [8 x i32], [48 x i8] }
%struct.my_coef_controller = type { %struct.jpeg_c_coef_controller, i32, i32, i32, i32, [10 x ptr], [10 x ptr] }
%struct.jpeg_c_coef_controller = type { ptr, ptr, ptr, ptr }
%struct.jpeg_component_info = type { i32, i32, i32, i32, i32, i32, i32, i32, i32, i32, i32, i32, i32, i32, i32, i32, i32, i32, i32, ptr, ptr }

; Function Attrs: nounwind uwtable
define internal void @start_iMCU_row(ptr noundef %0) #0 {
  %2 = alloca ptr, align 8
  %3 = alloca ptr, align 8
  store ptr %0, ptr %2, align 8, !tbaa !3
  call void @llvm.lifetime.start.p0(i64 8, ptr %3) #4
  %4 = load ptr, ptr %2, align 8, !tbaa !3
  %5 = getelementptr inbounds nuw %struct.jpeg_compress_struct, ptr %4, i32 0, i32 57
  %6 = load ptr, ptr %5, align 8, !tbaa !38
  store ptr %6, ptr %3, align 8, !tbaa !37
  %7 = load ptr, ptr %2, align 8, !tbaa !3
  %8 = getelementptr inbounds nuw %struct.jpeg_compress_struct, ptr %7, i32 0, i32 44
  %9 = load i32, ptr %8, align 4, !tbaa !60
  %10 = icmp sgt i32 %9, 1
  br i1 %10, label %11, label %14

11:                                               ; preds = %1
  %12 = load ptr, ptr %3, align 8, !tbaa !37
  %13 = getelementptr inbounds nuw %struct.my_coef_controller, ptr %12, i32 0, i32 4
  store i32 1, ptr %13, align 4, !tbaa !61
  br label %42

14:                                               ; preds = %1
  %15 = load ptr, ptr %3, align 8, !tbaa !37
  %16 = getelementptr inbounds nuw %struct.my_coef_controller, ptr %15, i32 0, i32 1
  %17 = load i32, ptr %16, align 8, !tbaa !58
  %18 = load ptr, ptr %2, align 8, !tbaa !3
  %19 = getelementptr inbounds nuw %struct.jpeg_compress_struct, ptr %18, i32 0, i32 43
  %20 = load i32, ptr %19, align 8, !tbaa !62
  %21 = sub i32 %20, 1
  %22 = icmp ult i32 %17, %21
  br i1 %22, label %23, label %32

23:                                               ; preds = %14
  %24 = load ptr, ptr %2, align 8, !tbaa !3
  %25 = getelementptr inbounds nuw %struct.jpeg_compress_struct, ptr %24, i32 0, i32 45
  %26 = getelementptr inbounds [4 x ptr], ptr %25, i64 0, i64 0
  %27 = load ptr, ptr %26, align 8, !tbaa !37
  %28 = getelementptr inbounds nuw %struct.jpeg_component_info, ptr %27, i32 0, i32 3
  %29 = load i32, ptr %28, align 4, !tbaa !49
  %30 = load ptr, ptr %3, align 8, !tbaa !37
  %31 = getelementptr inbounds nuw %struct.my_coef_controller, ptr %30, i32 0, i32 4
  store i32 %29, ptr %31, align 4, !tbaa !61
  br label %41

32:                                               ; preds = %14
  %33 = load ptr, ptr %2, align 8, !tbaa !3
  %34 = getelementptr inbounds nuw %struct.jpeg_compress_struct, ptr %33, i32 0, i32 45
  %35 = getelementptr inbounds [4 x ptr], ptr %34, i64 0, i64 0
  %36 = load ptr, ptr %35, align 8, !tbaa !37
  %37 = getelementptr inbounds nuw %struct.jpeg_component_info, ptr %36, i32 0, i32 18
  %38 = load i32, ptr %37, align 8, !tbaa !63
  %39 = load ptr, ptr %3, align 8, !tbaa !37
  %40 = getelementptr inbounds nuw %struct.my_coef_controller, ptr %39, i32 0, i32 4
  store i32 %38, ptr %40, align 4, !tbaa !61
  br label %41

41:                                               ; preds = %32, %23
  br label %42

42:                                               ; preds = %41, %11
  %43 = load ptr, ptr %3, align 8, !tbaa !37
  %44 = getelementptr inbounds nuw %struct.my_coef_controller, ptr %43, i32 0, i32 2
  store i32 0, ptr %44, align 4, !tbaa !64
  %45 = load ptr, ptr %3, align 8, !tbaa !37
  %46 = getelementptr inbounds nuw %struct.my_coef_controller, ptr %45, i32 0, i32 3
  store i32 0, ptr %46, align 8, !tbaa !65
  call void @llvm.lifetime.end.p0(i64 8, ptr %3) #4
  ret void
}

; Function Attrs: nounwind uwtable
define internal void @start_pass_coef(ptr noundef %0, i32 noundef %1) #0 {
  %3 = alloca ptr, align 8
  %4 = alloca i32, align 4
  %5 = alloca ptr, align 8
  store ptr %0, ptr %3, align 8, !tbaa !3
  store i32 %1, ptr %4, align 4, !tbaa !8
  call void @llvm.lifetime.start.p0(i64 8, ptr %5) #4
  %6 = load ptr, ptr %3, align 8, !tbaa !3
  %7 = getelementptr inbounds nuw %struct.jpeg_compress_struct, ptr %6, i32 0, i32 57
  %8 = load ptr, ptr %7, align 8, !tbaa !38
  store ptr %8, ptr %5, align 8, !tbaa !37
  %9 = load ptr, ptr %5, align 8, !tbaa !37
  %10 = getelementptr inbounds nuw %struct.my_coef_controller, ptr %9, i32 0, i32 1
  store i32 0, ptr %10, align 8, !tbaa !58
  %11 = load ptr, ptr %3, align 8, !tbaa !3
  call void @start_iMCU_row(ptr noundef %11)
  %12 = load i32, ptr %4, align 4, !tbaa !8
  switch i32 %12, label %76 [
    i32 0, label %13
    i32 3, label %34
    i32 2, label %55
  ]

13:                                               ; preds = %2
  %14 = load ptr, ptr %5, align 8, !tbaa !37
  %15 = getelementptr inbounds nuw %struct.my_coef_controller, ptr %14, i32 0, i32 6
  %16 = getelementptr inbounds [10 x ptr], ptr %15, i64 0, i64 0
  %17 = load ptr, ptr %16, align 8, !tbaa !50
  %18 = icmp ne ptr %17, null
  br i1 %18, label %19, label %30

19:                                               ; preds = %13
  %20 = load ptr, ptr %3, align 8, !tbaa !3
  %21 = getelementptr inbounds nuw %struct.jpeg_compress_struct, ptr %20, i32 0, i32 0
  %22 = load ptr, ptr %21, align 8, !tbaa !27
  %23 = getelementptr inbounds nuw %struct.jpeg_error_mgr, ptr %22, i32 0, i32 5
  store i32 4, ptr %23, align 8, !tbaa !28
  %24 = load ptr, ptr %3, align 8, !tbaa !3
  %25 = getelementptr inbounds nuw %struct.jpeg_compress_struct, ptr %24, i32 0, i32 0
  %26 = load ptr, ptr %25, align 8, !tbaa !27
  %27 = getelementptr inbounds nuw %struct.jpeg_error_mgr, ptr %26, i32 0, i32 0
  %28 = load ptr, ptr %27, align 8, !tbaa !33
  %29 = load ptr, ptr %3, align 8, !tbaa !3
  call void %28(ptr noundef %29)
  br label %30

30:                                               ; preds = %19, %13
  %31 = load ptr, ptr %5, align 8, !tbaa !37
  %32 = getelementptr inbounds nuw %struct.my_coef_controller, ptr %31, i32 0, i32 0
  %33 = getelementptr inbounds nuw %struct.jpeg_c_coef_controller, ptr %32, i32 0, i32 1
  store ptr @compress_data, ptr %33, align 8, !tbaa !59
  br label %87

34:                                               ; preds = %2
  %35 = load ptr, ptr %5, align 8, !tbaa !37
  %36 = getelementptr inbounds nuw %struct.my_coef_controller, ptr %35, i32 0, i32 6
  %37 = getelementptr inbounds [10 x ptr], ptr %36, i64 0, i64 0
  %38 = load ptr, ptr %37, align 8, !tbaa !50
  %39 = icmp eq ptr %38, null
  br i1 %39, label %40, label %51

40:                                               ; preds = %34
  %41 = load ptr, ptr %3, align 8, !tbaa !3
  %42 = getelementptr inbounds nuw %struct.jpeg_compress_struct, ptr %41, i32 0, i32 0
  %43 = load ptr, ptr %42, align 8, !tbaa !27
  %44 = getelementptr inbounds nuw %struct.jpeg_error_mgr, ptr %43, i32 0, i32 5
  store i32 4, ptr %44, align 8, !tbaa !28
  %45 = load ptr, ptr %3, align 8, !tbaa !3
  %46 = getelementptr inbounds nuw %struct.jpeg_compress_struct, ptr %45, i32 0, i32 0
  %47 = load ptr, ptr %46, align 8, !tbaa !27
  %48 = getelementptr inbounds nuw %struct.jpeg_error_mgr, ptr %47, i32 0, i32 0
  %49 = load ptr, ptr %48, align 8, !tbaa !33
  %50 = load ptr, ptr %3, align 8, !tbaa !3
  call void %49(ptr noundef %50)
  br label %51

51:                                               ; preds = %40, %34
  %52 = load ptr, ptr %5, align 8, !tbaa !37
  %53 = getelementptr inbounds nuw %struct.my_coef_controller, ptr %52, i32 0, i32 0
  %54 = getelementptr inbounds nuw %struct.jpeg_c_coef_controller, ptr %53, i32 0, i32 1
  store ptr @compress_first_pass, ptr %54, align 8, !tbaa !59
  br label %87

55:                                               ; preds = %2
  %56 = load ptr, ptr %5, align 8, !tbaa !37
  %57 = getelementptr inbounds nuw %struct.my_coef_controller, ptr %56, i32 0, i32 6
  %58 = getelementptr inbounds [10 x ptr], ptr %57, i64 0, i64 0
  %59 = load ptr, ptr %58, align 8, !tbaa !50
  %60 = icmp eq ptr %59, null
  br i1 %60, label %61, label %72

61:                                               ; preds = %55
  %62 = load ptr, ptr %3, align 8, !tbaa !3
  %63 = getelementptr inbounds nuw %struct.jpeg_compress_struct, ptr %62, i32 0, i32 0
  %64 = load ptr, ptr %63, align 8, !tbaa !27
  %65 = getelementptr inbounds nuw %struct.jpeg_error_mgr, ptr %64, i32 0, i32 5
  store i32 4, ptr %65, align 8, !tbaa !28
  %66 = load ptr, ptr %3, align 8, !tbaa !3
  %67 = getelementptr inbounds nuw %struct.jpeg_compress_struct, ptr %66, i32 0, i32 0
  %68 = load ptr, ptr %67, align 8, !tbaa !27
  %69 = getelementptr inbounds nuw %struct.jpeg_error_mgr, ptr %68, i32 0, i32 0
  %70 = load ptr, ptr %69, align 8, !tbaa !33
  %71 = load ptr, ptr %3, align 8, !tbaa !3
  call void %70(ptr noundef %71)
  br label %72

72:                                               ; preds = %61, %55
  %73 = load ptr, ptr %5, align 8, !tbaa !37
  %74 = getelementptr inbounds nuw %struct.my_coef_controller, ptr %73, i32 0, i32 0
  %75 = getelementptr inbounds nuw %struct.jpeg_c_coef_controller, ptr %74, i32 0, i32 1
  store ptr @compress_output, ptr %75, align 8, !tbaa !59
  br label %87

76:                                               ; preds = %2
  %77 = load ptr, ptr %3, align 8, !tbaa !3
  %78 = getelementptr inbounds nuw %struct.jpeg_compress_struct, ptr %77, i32 0, i32 0
  %79 = load ptr, ptr %78, align 8, !tbaa !27
  %80 = getelementptr inbounds nuw %struct.jpeg_error_mgr, ptr %79, i32 0, i32 5
  store i32 4, ptr %80, align 8, !tbaa !28
  %81 = load ptr, ptr %3, align 8, !tbaa !3
  %82 = getelementptr inbounds nuw %struct.jpeg_compress_struct, ptr %81, i32 0, i32 0
  %83 = load ptr, ptr %82, align 8, !tbaa !27
  %84 = getelementptr inbounds nuw %struct.jpeg_error_mgr, ptr %83, i32 0, i32 0
  %85 = load ptr, ptr %84, align 8, !tbaa !33
  %86 = load ptr, ptr %3, align 8, !tbaa !3
  call void %85(ptr noundef %86)
  br label %87

87:                                               ; preds = %76, %72, %51, %30
  call void @llvm.lifetime.end.p0(i64 8, ptr %5) #4
  ret void
}