; Function Attrs: nounwind uwtable
define internal void @start_pass_coef(ptr noundef %0, i32 noundef %1) #0 {
  %3 = getelementptr inbounds nuw i8, ptr %0, i64 456
  %4 = load ptr, ptr %3, align 8, !tbaa !34
  %5 = getelementptr inbounds nuw i8, ptr %4, i64 32
  store i32 0, ptr %5, align 8, !tbaa !54
  %6 = getelementptr inbounds nuw i8, ptr %0, i64 324
  %7 = load i32, ptr %6, align 4, !tbaa !55
  %8 = icmp sgt i32 %7, 1
  br i1 %8, label %9, label %11

9:                                                ; preds = %2
  %10 = getelementptr inbounds nuw i8, ptr %4, i64 44
  store i32 1, ptr %10, align 4, !tbaa !56
  br label %start_iMCU_row.exit

11:                                               ; preds = %2
  %12 = getelementptr inbounds nuw i8, ptr %0, i64 320
  %13 = load i32, ptr %12, align 8, !tbaa !57
  %.not21 = icmp eq i32 %13, 1
  %14 = getelementptr inbounds nuw i8, ptr %0, i64 328
  %15 = load ptr, ptr %14, align 8, !tbaa !58
  %16 = getelementptr inbounds nuw i8, ptr %4, i64 44
  br i1 %.not21, label %20, label %17

17:                                               ; preds = %11
  %18 = getelementptr inbounds nuw i8, ptr %15, i64 12
  %19 = load i32, ptr %18, align 4, !tbaa !45
  store i32 %19, ptr %16, align 4, !tbaa !56
  br label %start_iMCU_row.exit

20:                                               ; preds = %11
  %21 = getelementptr inbounds nuw i8, ptr %15, i64 72
  %22 = load i32, ptr %21, align 8, !tbaa !59
  store i32 %22, ptr %16, align 4, !tbaa !56
  br label %start_iMCU_row.exit

start_iMCU_row.exit:                              ; preds = %9, %17, %20
  %23 = getelementptr inbounds nuw i8, ptr %4, i64 36
  store i32 0, ptr %23, align 4, !tbaa !60
  %24 = getelementptr inbounds nuw i8, ptr %4, i64 40
  store i32 0, ptr %24, align 8, !tbaa !61
  switch i32 %1, label %54 [
    i32 0, label %25
    i32 3, label %34
    i32 2, label %44
  ]

25:                                               ; preds = %start_iMCU_row.exit
  %26 = getelementptr inbounds nuw i8, ptr %4, i64 128
  %27 = load ptr, ptr %26, align 8, !tbaa !46
  %.not = icmp eq ptr %27, null
  br i1 %.not, label %32, label %28

28:                                               ; preds = %25
  %29 = load ptr, ptr %0, align 8, !tbaa !24
  %30 = getelementptr inbounds nuw i8, ptr %29, i64 40
  store i32 4, ptr %30, align 8, !tbaa !25
  %31 = load ptr, ptr %29, align 8, !tbaa !30
  tail call void %31(ptr noundef nonnull %0) #4
  br label %32

32:                                               ; preds = %28, %25
  %33 = getelementptr inbounds nuw i8, ptr %4, i64 8
  store ptr @compress_data, ptr %33, align 8, !tbaa !62
  br label %58

34:                                               ; preds = %start_iMCU_row.exit
  %35 = getelementptr inbounds nuw i8, ptr %4, i64 128
  %36 = load ptr, ptr %35, align 8, !tbaa !46
  %37 = icmp eq ptr %36, null
  br i1 %37, label %38, label %42

38:                                               ; preds = %34
  %39 = load ptr, ptr %0, align 8, !tbaa !24
  %40 = getelementptr inbounds nuw i8, ptr %39, i64 40
  store i32 4, ptr %40, align 8, !tbaa !25
  %41 = load ptr, ptr %39, align 8, !tbaa !30
  tail call void %41(ptr noundef nonnull %0) #4
  br label %42

42:                                               ; preds = %38, %34
  %43 = getelementptr inbounds nuw i8, ptr %4, i64 8
  store ptr @compress_first_pass, ptr %43, align 8, !tbaa !62
  br label %58

44:                                               ; preds = %start_iMCU_row.exit
  %45 = getelementptr inbounds nuw i8, ptr %4, i64 128
  %46 = load ptr, ptr %45, align 8, !tbaa !46
  %47 = icmp eq ptr %46, null
  br i1 %47, label %48, label %52

48:                                               ; preds = %44
  %49 = load ptr, ptr %0, align 8, !tbaa !24
  %50 = getelementptr inbounds nuw i8, ptr %49, i64 40
  store i32 4, ptr %50, align 8, !tbaa !25
  %51 = load ptr, ptr %49, align 8, !tbaa !30
  tail call void %51(ptr noundef nonnull %0) #4
  br label %52

52:                                               ; preds = %48, %44
  %53 = getelementptr inbounds nuw i8, ptr %4, i64 8
  store ptr @compress_output, ptr %53, align 8, !tbaa !62
  br label %58

54:                                               ; preds = %start_iMCU_row.exit
  %55 = load ptr, ptr %0, align 8, !tbaa !24
  %56 = getelementptr inbounds nuw i8, ptr %55, i64 40
  store i32 4, ptr %56, align 8, !tbaa !25
  %57 = load ptr, ptr %55, align 8, !tbaa !30
  tail call void %57(ptr noundef nonnull %0) #4
  br label %58

58:                                               ; preds = %54, %52, %42, %32
  ret void
}